target datalayout = "e-m:e-p270:32:32-p271:32:32-p272:64:64-i64:64-i128:128-f80:128-n8:16:32:64-S128"
target triple = "x86_64-unknown-linux-gnu"

; Function Attrs: mustprogress nounwind uwtable
define hidden noundef ptr @_ZN7datalog30finite_product_relation_plugin3getEPNS_13relation_baseE(ptr noundef %r) #5 align 2 {
entry:
  %r.addr = alloca ptr, align 8
  store ptr %r, ptr %r.addr, align 8
  %0 = load ptr, ptr %r.addr, align 8
  ret ptr %0
}

; Function Attrs: mustprogress uwtable
define hidden noundef ptr @_ZN7datalog30finite_product_relation_plugin7mk_fullEP9func_declRKNS_18relation_signatureE(ptr noundef nonnull align 8 dereferenceable(112) %this, ptr noundef %p, ptr noundef nonnull align 8 dereferenceable(8) %s) unnamed_addr #4 align 2 {
entry:
  %this.addr = alloca ptr, align 8
  %p.addr = alloca ptr, align 8
  %s.addr = alloca ptr, align 8
  %res = alloca ptr, align 8
  store ptr %this, ptr %this.addr, align 8
  store ptr %p, ptr %p.addr, align 8
  store ptr %s, ptr %s.addr, align 8
  %this1 = load ptr, ptr %this.addr, align 8
  %0 = load ptr, ptr %s.addr, align 8
  %vtable = load ptr, ptr %this1, align 8
  %vfn = getelementptr inbounds ptr, ptr %vtable, i64 5
  %1 = load ptr, ptr %vfn, align 8
  %call = call noundef ptr %1(ptr noundef nonnull align 8 dereferenceable(112) %this1, ptr noundef nonnull align 8 dereferenceable(8) %0)
  %call2 = call noundef ptr @_ZN7datalog30finite_product_relation_plugin3getEPNS_13relation_baseE(ptr noundef %call)
  store ptr %call2, ptr %res, align 8
  %2 = load ptr, ptr %res, align 8
  %3 = load ptr, ptr %p.addr, align 8
  call void @_ZN7datalog23finite_product_relation15complement_selfEP9func_decl(ptr noundef nonnull align 8 dereferenceable(160) %2, ptr noundef %3)
  %4 = load ptr, ptr %res, align 8
  ret ptr %4
}