; Function Attrs: mustprogress uwtable
define hidden noundef ptr @_ZN7datalog30finite_product_relation_plugin7mk_fullEP9func_declRKNS_18relation_signatureE(ptr noundef nonnull align 8 dereferenceable(112) %this, ptr noundef %p, ptr noundef nonnull align 8 dereferenceable(8) %s) unnamed_addr #3 align 2 {
entry:
  %vtable = load ptr, ptr %this, align 8
  %vfn = getelementptr inbounds i8, ptr %vtable, i64 40
  %0 = load ptr, ptr %vfn, align 8
  %call = tail call noundef ptr %0(ptr noundef nonnull align 8 dereferenceable(112) %this, ptr noundef nonnull align 8 dereferenceable(8) %s)
  tail call void @_ZN7datalog23finite_product_relation15complement_selfEP9func_decl(ptr noundef nonnull align 8 dereferenceable(160) %call, ptr noundef %p)
  ret ptr %call
}